target datalayout = "e-m:e-p270:32:32-p271:32:32-p272:64:64-i64:64-i128:128-f80:128-n8:16:32:64-S128"
target triple = "x86_64-pc-linux-gnu"

%"class.llvm::StringRef" = type { ptr, i64 }
%"struct.(anonymous namespace)::NoTTIImpl" = type { %"class.llvm::TargetTransformInfoImplCRTPBase" }
%"class.llvm::TargetTransformInfoImplCRTPBase" = type { %"class.llvm::TargetTransformInfoImplBase" }
%"class.llvm::TargetTransformInfoImplBase" = type { ptr }
%"class.llvm::TargetTransformInfo::Model" = type { %"class.llvm::TargetTransformInfo::Concept", %"struct.(anonymous namespace)::NoTTIImpl" }
%"class.llvm::TargetTransformInfo::Concept" = type { ptr }
%"class.llvm::Attribute" = type { ptr }

@.str.74 = private unnamed_addr constant [11 x i8] c"target-cpu\00", align 1
@.str.75 = private unnamed_addr constant [16 x i8] c"target-features\00", align 1

; Function Attrs: mustprogress nounwind uwtable
define linkonce_odr hidden noundef i64 @_ZNSt11char_traitsIcE6lengthEPKc(ptr noundef %0) #1 comdat align 2 {
  %2 = alloca ptr, align 8
  store ptr %0, ptr %2, align 8
  %3 = load ptr, ptr %2, align 8
  %4 = call i64 @strlen(ptr noundef %3) #2
  ret i64 %4
}

; Function Attrs: mustprogress nounwind uwtable
define linkonce_odr hidden noundef zeroext i1 @_ZNK4llvm9AttributeeqES0_(ptr noundef nonnull align 8 dereferenceable(8) %0, ptr %1) #1 comdat align 2 {
  %3 = alloca %"class.llvm::Attribute", align 8
  %4 = alloca ptr, align 8
  %5 = getelementptr inbounds nuw %"class.llvm::Attribute", ptr %3, i32 0, i32 0
  store ptr %1, ptr %5, align 8
  store ptr %0, ptr %4, align 8
  %6 = load ptr, ptr %4, align 8
  %7 = getelementptr inbounds nuw %"class.llvm::Attribute", ptr %6, i32 0, i32 0
  %8 = load ptr, ptr %7, align 8
  %9 = getelementptr inbounds nuw %"class.llvm::Attribute", ptr %3, i32 0, i32 0
  %10 = load ptr, ptr %9, align 8
  %11 = icmp eq ptr %8, %10
  ret i1 %11
}

; Function Attrs: mustprogress nounwind uwtable
define linkonce_odr hidden void @_ZN4llvm9StringRefC2EPKc(ptr noundef nonnull align 8 dereferenceable(16) %0, ptr noundef %1) unnamed_addr #1 comdat align 2 {
  %3 = alloca ptr, align 8
  %4 = alloca ptr, align 8
  store ptr %0, ptr %3, align 8
  store ptr %1, ptr %4, align 8
  %5 = load ptr, ptr %3, align 8
  %6 = getelementptr inbounds nuw %"class.llvm::StringRef", ptr %5, i32 0, i32 0
  %7 = load ptr, ptr %4, align 8
  store ptr %7, ptr %6, align 8
  %8 = getelementptr inbounds nuw %"class.llvm::StringRef", ptr %5, i32 0, i32 1
  %9 = load ptr, ptr %4, align 8
  %10 = icmp ne ptr %9, null
  br i1 %10, label %11, label %14

11:                                               ; preds = %2
  %12 = load ptr, ptr %4, align 8
  %13 = call noundef i64 @_ZNSt11char_traitsIcE6lengthEPKc(ptr noundef %12)
  br label %15

14:                                               ; preds = %2
  br label %15

15:                                               ; preds = %14, %11
  %16 = phi i64 [ %13, %11 ], [ 0, %14 ]
  store i64 %16, ptr %8, align 8
  ret void
}

; Function Attrs: mustprogress nounwind uwtable
define linkonce_odr hidden noundef zeroext i1 @_ZNK4llvm27TargetTransformInfoImplBase21areTypesABICompatibleEPKNS_8FunctionES3_RKNS_8ArrayRefIPNS_4TypeEEE(ptr noundef nonnull align 8 dereferenceable(8) %0, ptr noundef %1, ptr noundef %2, ptr noundef nonnull align 8 dereferenceable(16) %3) #1 comdat align 2 {
  %5 = alloca ptr, align 8
  %6 = alloca ptr, align 8
  %7 = alloca ptr, align 8
  %8 = alloca ptr, align 8
  %9 = alloca %"class.llvm::Attribute", align 8
  %10 = alloca %"class.llvm::StringRef", align 8
  %11 = alloca %"class.llvm::Attribute", align 8
  %12 = alloca %"class.llvm::StringRef", align 8
  %13 = alloca %"class.llvm::Attribute", align 8
  %14 = alloca %"class.llvm::StringRef", align 8
  %15 = alloca %"class.llvm::Attribute", align 8
  %16 = alloca %"class.llvm::StringRef", align 8
  store ptr %0, ptr %5, align 8
  store ptr %1, ptr %6, align 8
  store ptr %2, ptr %7, align 8
  store ptr %3, ptr %8, align 8
  %17 = load ptr, ptr %6, align 8
  call void @_ZN4llvm9StringRefC2EPKc(ptr noundef nonnull align 8 dereferenceable(16) %10, ptr noundef @.str.74)
  %18 = getelementptr inbounds nuw { ptr, i64 }, ptr %10, i32 0, i32 0
  %19 = load ptr, ptr %18, align 8
  %20 = getelementptr inbounds nuw { ptr, i64 }, ptr %10, i32 0, i32 1
  %21 = load i64, ptr %20, align 8
  %22 = call ptr @_ZNK4llvm8Function14getFnAttributeENS_9StringRefE(ptr noundef nonnull align 8 dereferenceable(136) %17, ptr %19, i64 %21)
  %23 = getelementptr inbounds nuw %"class.llvm::Attribute", ptr %9, i32 0, i32 0
  store ptr %22, ptr %23, align 8
  %24 = load ptr, ptr %7, align 8
  call void @_ZN4llvm9StringRefC2EPKc(ptr noundef nonnull align 8 dereferenceable(16) %12, ptr noundef @.str.74)
  %25 = getelementptr inbounds nuw { ptr, i64 }, ptr %12, i32 0, i32 0
  %26 = load ptr, ptr %25, align 8
  %27 = getelementptr inbounds nuw { ptr, i64 }, ptr %12, i32 0, i32 1
  %28 = load i64, ptr %27, align 8
  %29 = call ptr @_ZNK4llvm8Function14getFnAttributeENS_9StringRefE(ptr noundef nonnull align 8 dereferenceable(136) %24, ptr %26, i64 %28)
  %30 = getelementptr inbounds nuw %"class.llvm::Attribute", ptr %11, i32 0, i32 0
  store ptr %29, ptr %30, align 8
  %31 = getelementptr inbounds nuw %"class.llvm::Attribute", ptr %11, i32 0, i32 0
  %32 = load ptr, ptr %31, align 8
  %33 = call noundef zeroext i1 @_ZNK4llvm9AttributeeqES0_(ptr noundef nonnull align 8 dereferenceable(8) %9, ptr %32)
  br i1 %33, label %34, label %52

34:                                               ; preds = %4
  %35 = load ptr, ptr %6, align 8
  call void @_ZN4llvm9StringRefC2EPKc(ptr noundef nonnull align 8 dereferenceable(16) %14, ptr noundef @.str.75)
  %36 = getelementptr inbounds nuw { ptr, i64 }, ptr %14, i32 0, i32 0
  %37 = load ptr, ptr %36, align 8
  %38 = getelementptr inbounds nuw { ptr, i64 }, ptr %14, i32 0, i32 1
  %39 = load i64, ptr %38, align 8
  %40 = call ptr @_ZNK4llvm8Function14getFnAttributeENS_9StringRefE(ptr noundef nonnull align 8 dereferenceable(136) %35, ptr %37, i64 %39)
  %41 = getelementptr inbounds nuw %"class.llvm::Attribute", ptr %13, i32 0, i32 0
  store ptr %40, ptr %41, align 8
  %42 = load ptr, ptr %7, align 8
  call void @_ZN4llvm9StringRefC2EPKc(ptr noundef nonnull align 8 dereferenceable(16) %16, ptr noundef @.str.75)
  %43 = getelementptr inbounds nuw { ptr, i64 }, ptr %16, i32 0, i32 0
  %44 = load ptr, ptr %43, align 8
  %45 = getelementptr inbounds nuw { ptr, i64 }, ptr %16, i32 0, i32 1
  %46 = load i64, ptr %45, align 8
  %47 = call ptr @_ZNK4llvm8Function14getFnAttributeENS_9StringRefE(ptr noundef nonnull align 8 dereferenceable(136) %42, ptr %44, i64 %46)
  %48 = getelementptr inbounds nuw %"class.llvm::Attribute", ptr %15, i32 0, i32 0
  store ptr %47, ptr %48, align 8
  %49 = getelementptr inbounds nuw %"class.llvm::Attribute", ptr %15, i32 0, i32 0
  %50 = load ptr, ptr %49, align 8
  %51 = call noundef zeroext i1 @_ZNK4llvm9AttributeeqES0_(ptr noundef nonnull align 8 dereferenceable(8) %13, ptr %50)
  br label %52

52:                                               ; preds = %34, %4
  %53 = phi i1 [ false, %4 ], [ %51, %34 ]
  ret i1 %53
}

; Function Attrs: mustprogress nounwind uwtable
define internal noundef zeroext i1 @_ZNK4llvm19TargetTransformInfo5ModelIN12_GLOBAL__N_19NoTTIImplEE21areTypesABICompatibleEPKNS_8FunctionES7_RKNS_8ArrayRefIPNS_4TypeEEE(ptr noundef nonnull align 8 dereferenceable(16) %0, ptr noundef %1, ptr noundef %2, ptr noundef nonnull align 8 dereferenceable(16) %3) unnamed_addr #1 align 2 {
  %5 = alloca ptr, align 8
  %6 = alloca ptr, align 8
  %7 = alloca ptr, align 8
  %8 = alloca ptr, align 8
  store ptr %0, ptr %5, align 8
  store ptr %1, ptr %6, align 8
  store ptr %2, ptr %7, align 8
  store ptr %3, ptr %8, align 8
  %9 = load ptr, ptr %5, align 8
  %10 = getelementptr inbounds nuw %"class.llvm::TargetTransformInfo::Model", ptr %9, i32 0, i32 1
  %11 = load ptr, ptr %6, align 8
  %12 = load ptr, ptr %7, align 8
  %13 = load ptr, ptr %8, align 8
  %14 = call noundef zeroext i1 @_ZNK4llvm27TargetTransformInfoImplBase21areTypesABICompatibleEPKNS_8FunctionES3_RKNS_8ArrayRefIPNS_4TypeEEE(ptr noundef nonnull align 8 dereferenceable(8) %10, ptr noundef %11, ptr noundef %12, ptr noundef nonnull align 8 dereferenceable(16) %13)
  ret i1 %14
}