; Function Attrs: mustprogress nounwind uwtable
define internal noundef zeroext i1 @_ZNK4llvm19TargetTransformInfo5ModelIN12_GLOBAL__N_19NoTTIImplEE21areTypesABICompatibleEPKNS_8FunctionES7_RKNS_8ArrayRefIPNS_4TypeEEE(ptr nocapture nonnull readnone align 8 %0, ptr noundef nonnull %1, ptr noundef %2, ptr nocapture nonnull readnone align 8 %3) unnamed_addr #0 align 2 {
  %5 = tail call ptr @_ZNK4llvm8Function14getFnAttributeENS_9StringRefE(ptr noundef nonnull align 8 dereferenceable(136) %1, ptr nonnull @.str.74, i64 10) #25
  %6 = tail call ptr @_ZNK4llvm8Function14getFnAttributeENS_9StringRefE(ptr noundef nonnull align 8 dereferenceable(136) %2, ptr nonnull @.str.74, i64 10) #25
  %7 = icmp eq ptr %5, %6
  br i1 %7, label %8, label %_ZNK4llvm27TargetTransformInfoImplBase21areTypesABICompatibleEPKNS_8FunctionES3_RKNS_8ArrayRefIPNS_4TypeEEE.exit

8:                                                ; preds = %4
  %9 = tail call ptr @_ZNK4llvm8Function14getFnAttributeENS_9StringRefE(ptr noundef nonnull align 8 dereferenceable(136) %1, ptr nonnull @.str.75, i64 15) #25
  %10 = tail call ptr @_ZNK4llvm8Function14getFnAttributeENS_9StringRefE(ptr noundef nonnull align 8 dereferenceable(136) %2, ptr nonnull @.str.75, i64 15) #25
  %11 = icmp eq ptr %9, %10
  br label %_ZNK4llvm27TargetTransformInfoImplBase21areTypesABICompatibleEPKNS_8FunctionES3_RKNS_8ArrayRefIPNS_4TypeEEE.exit

_ZNK4llvm27TargetTransformInfoImplBase21areTypesABICompatibleEPKNS_8FunctionES3_RKNS_8ArrayRefIPNS_4TypeEEE.exit: ; preds = %4, %8
  %12 = phi i1 [ false, %4 ], [ %11, %8 ]
  ret i1 %12
}